target datalayout = "e-m:e-p270:32:32-p271:32:32-p272:64:64-i64:64-i128:128-f80:128-n8:16:32:64-S128"
target triple = "x86_64-pc-linux-gnu"

%"class.std::unique_ptr" = type { %"struct.std::__uniq_ptr_data" }
%"struct.std::__uniq_ptr_data" = type { %"class.std::__uniq_ptr_impl" }
%"class.std::__uniq_ptr_impl" = type { %"class.std::tuple" }
%"class.std::tuple" = type { %"struct.std::_Tuple_impl" }
%"struct.std::_Tuple_impl" = type { %"struct.std::_Head_base.1" }
%"struct.std::_Head_base.1" = type { ptr }
%"class.llvm::X86Disassembler::DisassemblerTables" = type <{ [12 x %"class.std::unique_ptr"], %"class.std::map", %"class.std::vector", i8, [7 x i8] }>
%"class.std::map" = type { %"class.std::_Rb_tree" }
%"class.std::_Rb_tree" = type { %"struct.std::_Rb_tree<std::vector<unsigned int>, std::pair<const std::vector<unsigned int>, unsigned int>, std::_Select1st<std::pair<const std::vector<unsigned int>, unsigned int>>, std::less<std::vector<unsigned int>>>::_Rb_tree_impl" }
%"struct.std::_Rb_tree<std::vector<unsigned int>, std::pair<const std::vector<unsigned int>, unsigned int>, std::_Select1st<std::pair<const std::vector<unsigned int>, unsigned int>>, std::less<std::vector<unsigned int>>>::_Rb_tree_impl" = type { [8 x i8], %"struct.std::_Rb_tree_header" }
%"struct.std::_Rb_tree_header" = type { %"struct.std::_Rb_tree_node_base", i64 }
%"struct.std::_Rb_tree_node_base" = type { i32, ptr, ptr, ptr }
%"class.std::vector" = type { %"struct.std::_Vector_base" }
%"struct.std::_Vector_base" = type { %"struct.std::_Vector_base<InstructionSpecifier, std::allocator<InstructionSpecifier>>::_Vector_impl" }
%"struct.std::_Vector_base<InstructionSpecifier, std::allocator<InstructionSpecifier>>::_Vector_impl" = type { %"struct.std::_Vector_base<InstructionSpecifier, std::allocator<InstructionSpecifier>>::_Vector_impl_data" }
%"struct.std::_Vector_base<InstructionSpecifier, std::allocator<InstructionSpecifier>>::_Vector_impl_data" = type { ptr, ptr, ptr }
%struct.ModRMDecision = type { i8, [256 x i16] }
%struct.InstructionSpecifier = type { [6 x %"struct.llvm::X86Disassembler::OperandSpecifier"], i32, %"class.std::__cxx11::basic_string" }
%"struct.llvm::X86Disassembler::OperandSpecifier" = type { i8, i8 }
%"class.std::__cxx11::basic_string" = type { %"struct.std::__cxx11::basic_string<char>::_Alloc_hider", i64, %union.anon }
%"struct.std::__cxx11::basic_string<char>::_Alloc_hider" = type { ptr }
%union.anon = type { i64, [8 x i8] }
%struct.OpcodeDecision = type { [256 x %struct.ModRMDecision] }
%struct.ContextDecision = type { [219 x %struct.OpcodeDecision] }

; Function Attrs: mustprogress nounwind uwtable
define linkonce_odr hidden noundef nonnull align 8 dereferenceable(8) ptr @_ZNSt10_Head_baseILm0EP15ContextDecisionLb0EE7_M_headERKS2_(ptr noundef nonnull align 8 dereferenceable(8) %0) #0 comdat align 2 {
  %2 = alloca ptr, align 8
  store ptr %0, ptr %2, align 8
  %3 = load ptr, ptr %2, align 8
  %4 = getelementptr inbounds nuw %"struct.std::_Head_base.1", ptr %3, i32 0, i32 0
  ret ptr %4
}

; Function Attrs: mustprogress nounwind uwtable
define linkonce_odr hidden noundef nonnull align 8 dereferenceable(8) ptr @_ZNSt11_Tuple_implILm0EJP15ContextDecisionSt14default_deleteIS0_EEE7_M_headERKS4_(ptr noundef nonnull align 8 dereferenceable(8) %0) #0 comdat align 2 {
  %2 = alloca ptr, align 8
  store ptr %0, ptr %2, align 8
  %3 = load ptr, ptr %2, align 8
  %4 = call noundef nonnull align 8 dereferenceable(8) ptr @_ZNSt10_Head_baseILm0EP15ContextDecisionLb0EE7_M_headERKS2_(ptr noundef nonnull align 8 dereferenceable(8) %3) #9
  ret ptr %4
}

; Function Attrs: mustprogress nounwind uwtable
define linkonce_odr noundef nonnull align 8 dereferenceable(8) ptr @_ZSt12__get_helperILm0EP15ContextDecisionJSt14default_deleteIS0_EEERKT0_RKSt11_Tuple_implIXT_EJS4_DpT1_EE(ptr noundef nonnull align 8 dereferenceable(8) %0) #0 comdat {
  %2 = alloca ptr, align 8
  store ptr %0, ptr %2, align 8
  %3 = load ptr, ptr %2, align 8
  %4 = call noundef nonnull align 8 dereferenceable(8) ptr @_ZNSt11_Tuple_implILm0EJP15ContextDecisionSt14default_deleteIS0_EEE7_M_headERKS4_(ptr noundef nonnull align 8 dereferenceable(8) %3) #9
  ret ptr %4
}

; Function Attrs: mustprogress nounwind uwtable
define linkonce_odr noundef nonnull align 8 dereferenceable(8) ptr @_ZSt3getILm0EJP15ContextDecisionSt14default_deleteIS0_EEERKNSt13tuple_elementIXT_ESt5tupleIJDpT0_EEE4typeERKS8_(ptr noundef nonnull align 8 dereferenceable(8) %0) #0 comdat {
  %2 = alloca ptr, align 8
  store ptr %0, ptr %2, align 8
  %3 = load ptr, ptr %2, align 8
  %4 = call noundef nonnull align 8 dereferenceable(8) ptr @_ZSt12__get_helperILm0EP15ContextDecisionJSt14default_deleteIS0_EEERKT0_RKSt11_Tuple_implIXT_EJS4_DpT1_EE(ptr noundef nonnull align 8 dereferenceable(8) %3) #9
  ret ptr %4
}

; Function Attrs: mustprogress nounwind uwtable
define linkonce_odr hidden noundef ptr @_ZNKSt15__uniq_ptr_implI15ContextDecisionSt14default_deleteIS0_EE6_M_ptrEv(ptr noundef nonnull align 8 dereferenceable(8) %0) #0 comdat align 2 {
  %2 = alloca ptr, align 8
  store ptr %0, ptr %2, align 8
  %3 = load ptr, ptr %2, align 8
  %4 = getelementptr inbounds nuw %"class.std::__uniq_ptr_impl", ptr %3, i32 0, i32 0
  %5 = call noundef nonnull align 8 dereferenceable(8) ptr @_ZSt3getILm0EJP15ContextDecisionSt14default_deleteIS0_EEERKNSt13tuple_elementIXT_ESt5tupleIJDpT0_EEE4typeERKS8_(ptr noundef nonnull align 8 dereferenceable(8) %4) #9
  %6 = load ptr, ptr %5, align 8
  ret ptr %6
}

; Function Attrs: mustprogress nounwind uwtable
define linkonce_odr hidden noundef ptr @_ZNKSt10unique_ptrI15ContextDecisionSt14default_deleteIS0_EE3getEv(ptr noundef nonnull align 8 dereferenceable(8) %0) #0 comdat align 2 {
  %2 = alloca ptr, align 8
  store ptr %0, ptr %2, align 8
  %3 = load ptr, ptr %2, align 8
  %4 = getelementptr inbounds nuw %"class.std::unique_ptr", ptr %3, i32 0, i32 0
  %5 = call noundef ptr @_ZNKSt15__uniq_ptr_implI15ContextDecisionSt14default_deleteIS0_EE6_M_ptrEv(ptr noundef nonnull align 8 dereferenceable(8) %4) #9
  ret ptr %5
}

; Function Attrs: mustprogress nounwind uwtable
define linkonce_odr hidden noundef nonnull align 8 dereferenceable(48) ptr @_ZNSt6vectorI20InstructionSpecifierSaIS0_EEixEm(ptr noundef nonnull align 8 dereferenceable(24) %0, i64 noundef %1) #0 comdat align 2 {
  %3 = alloca ptr, align 8
  %4 = alloca i64, align 8
  store ptr %0, ptr %3, align 8
  store i64 %1, ptr %4, align 8
  %5 = load ptr, ptr %3, align 8
  %6 = getelementptr inbounds nuw %"struct.std::_Vector_base", ptr %5, i32 0, i32 0
  %7 = getelementptr inbounds nuw %"struct.std::_Vector_base<InstructionSpecifier, std::allocator<InstructionSpecifier>>::_Vector_impl_data", ptr %6, i32 0, i32 0
  %8 = load ptr, ptr %7, align 8
  %9 = load i64, ptr %4, align 8
  %10 = getelementptr inbounds %struct.InstructionSpecifier, ptr %8, i64 %9
  ret ptr %10
}

; Function Attrs: mustprogress nounwind uwtable
define linkonce_odr hidden noundef nonnull align 2 dereferenceable(28816896) ptr @_ZNKSt10unique_ptrI15ContextDecisionSt14default_deleteIS0_EEdeEv(ptr noundef nonnull align 8 dereferenceable(8) %0) #0 comdat align 2 {
  %2 = alloca ptr, align 8
  store ptr %0, ptr %2, align 8
  %3 = load ptr, ptr %2, align 8
  br label %4

4:                                                ; preds = %1
  br label %5

5:                                                ; preds = %4
  %6 = call noundef ptr @_ZNKSt10unique_ptrI15ContextDecisionSt14default_deleteIS0_EE3getEv(ptr noundef nonnull align 8 dereferenceable(8) %3) #9
  ret ptr %6
}

; Function Attrs: mustprogress nounwind uwtable
define dso_local void @_ZN4llvm15X86Disassembler18DisassemblerTables14setTableFieldsENS0_10OpcodeTypeENS0_18InstructionContextEhRKNS0_11ModRMFilterEtbbbbj(ptr noundef nonnull align 8 dereferenceable(169) %0, i32 noundef %1, i32 noundef %2, i8 noundef zeroext %3, ptr noundef nonnull align 8 dereferenceable(8) %4, i16 noundef zeroext %5, i1 noundef zeroext %6, i1 noundef zeroext %7, i1 noundef zeroext %8, i1 noundef zeroext %9, i32 noundef %10) #0 align 2 {
  %12 = alloca ptr, align 8
  %13 = alloca i32, align 4
  %14 = alloca i32, align 4
  %15 = alloca i8, align 1
  %16 = alloca ptr, align 8
  %17 = alloca i16, align 2
  %18 = alloca i8, align 1
  %19 = alloca i8, align 1
  %20 = alloca i8, align 1
  %21 = alloca i8, align 1
  %22 = alloca i32, align 4
  %23 = alloca ptr, align 8
  %24 = alloca i32, align 4
  %25 = alloca i8, align 1
  store ptr %0, ptr %12, align 8
  store i32 %1, ptr %13, align 4
  store i32 %2, ptr %14, align 4
  store i8 %3, ptr %15, align 1
  store ptr %4, ptr %16, align 8
  store i16 %5, ptr %17, align 2
  %26 = zext i1 %6 to i8
  store i8 %26, ptr %18, align 1
  %27 = zext i1 %7 to i8
  store i8 %27, ptr %19, align 1
  %28 = zext i1 %8 to i8
  store i8 %28, ptr %20, align 1
  %29 = zext i1 %9 to i8
  store i8 %29, ptr %21, align 1
  store i32 %10, ptr %22, align 4
  %30 = load ptr, ptr %12, align 8
  %31 = getelementptr inbounds nuw %"class.llvm::X86Disassembler::DisassemblerTables", ptr %30, i32 0, i32 0
  %32 = load i32, ptr %13, align 4
  %33 = zext i32 %32 to i64
  %34 = getelementptr inbounds [12 x %"class.std::unique_ptr"], ptr %31, i64 0, i64 %33
  %35 = call noundef nonnull align 2 dereferenceable(28816896) ptr @_ZNKSt10unique_ptrI15ContextDecisionSt14default_deleteIS0_EEdeEv(ptr noundef nonnull align 8 dereferenceable(8) %34) #9
  store ptr %35, ptr %23, align 8
  store i32 0, ptr %24, align 4
  br label %36

36:                                               ; preds = %83, %11
  %37 = load i32, ptr %24, align 4
  %38 = icmp ult i32 %37, 219
  br i1 %38, label %39, label %86

39:                                               ; preds = %36
  %40 = load i8, ptr %18, align 1
  %41 = trunc i8 %40 to i1
  br i1 %41, label %45, label %42

42:                                               ; preds = %39
  %43 = load i32, ptr %22, align 4
  %44 = icmp eq i32 %43, 16
  br i1 %44, label %45, label %49

45:                                               ; preds = %42, %39
  %46 = load i32, ptr %24, align 4
  %47 = call noundef zeroext i1 @_ZL12inheritsFromN4llvm15X86Disassembler18InstructionContextES1_bbbb(i32 noundef %46, i32 noundef 1, i1 noundef zeroext true, i1 noundef zeroext false, i1 noundef zeroext false, i1 noundef zeroext false)
  br i1 %47, label %48, label %49

48:                                               ; preds = %45
  br label %83

49:                                               ; preds = %45, %42
  %50 = load i32, ptr %22, align 4
  %51 = icmp eq i32 %50, 64
  %52 = zext i1 %51 to i8
  store i8 %52, ptr %25, align 1
  %53 = load i32, ptr %24, align 4
  %54 = getelementptr inbounds nuw %"class.llvm::X86Disassembler::DisassemblerTables", ptr %30, i32 0, i32 2
  %55 = load i16, ptr %17, align 2
  %56 = zext i16 %55 to i64
  %57 = call noundef nonnull align 8 dereferenceable(48) ptr @_ZNSt6vectorI20InstructionSpecifierSaIS0_EEixEm(ptr noundef nonnull align 8 dereferenceable(24) %54, i64 noundef %56) #9
  %58 = getelementptr inbounds nuw %struct.InstructionSpecifier, ptr %57, i32 0, i32 1
  %59 = load i32, ptr %58, align 4
  %60 = load i8, ptr %19, align 1
  %61 = trunc i8 %60 to i1
  %62 = load i8, ptr %20, align 1
  %63 = trunc i8 %62 to i1
  %64 = load i8, ptr %21, align 1
  %65 = trunc i8 %64 to i1
  %66 = load i8, ptr %25, align 1
  %67 = trunc i8 %66 to i1
  %68 = call noundef zeroext i1 @_ZL12inheritsFromN4llvm15X86Disassembler18InstructionContextES1_bbbb(i32 noundef %53, i32 noundef %59, i1 noundef zeroext %61, i1 noundef zeroext %63, i1 noundef zeroext %65, i1 noundef zeroext %67)
  br i1 %68, label %69, label %82

69:                                               ; preds = %49
  %70 = load ptr, ptr %23, align 8
  %71 = getelementptr inbounds nuw %struct.ContextDecision, ptr %70, i32 0, i32 0
  %72 = load i32, ptr %24, align 4
  %73 = zext i32 %72 to i64
  %74 = getelementptr inbounds [219 x %struct.OpcodeDecision], ptr %71, i64 0, i64 %73
  %75 = getelementptr inbounds nuw %struct.OpcodeDecision, ptr %74, i32 0, i32 0
  %76 = load i8, ptr %15, align 1
  %77 = zext i8 %76 to i64
  %78 = getelementptr inbounds [256 x %struct.ModRMDecision], ptr %75, i64 0, i64 %77
  %79 = load ptr, ptr %16, align 8
  %80 = load i16, ptr %17, align 2
  %81 = load i8, ptr %15, align 1
  call void @_ZN4llvm15X86Disassembler18DisassemblerTables14setTableFieldsER13ModRMDecisionRKNS0_11ModRMFilterEth(ptr noundef nonnull align 8 dereferenceable(169) %30, ptr noundef nonnull align 2 dereferenceable(514) %78, ptr noundef nonnull align 8 dereferenceable(8) %79, i16 noundef zeroext %80, i8 noundef zeroext %81)
  br label %82

82:                                               ; preds = %69, %49
  br label %83

83:                                               ; preds = %82, %48
  %84 = load i32, ptr %24, align 4
  %85 = add i32 %84, 1
  store i32 %85, ptr %24, align 4
  br label %36, !llvm.loop !19

86:                                               ; preds = %36
  ret void
}