; Function Attrs: mustprogress nounwind uwtable
define dso_local void @_ZN4llvm15X86Disassembler18DisassemblerTables14setTableFieldsENS0_10OpcodeTypeENS0_18InstructionContextEhRKNS0_11ModRMFilterEtbbbbj(ptr nocapture noundef nonnull align 8 dereferenceable(169) %0, i32 noundef %1, i32 noundef %2, i8 noundef zeroext %3, ptr noundef nonnull align 8 dereferenceable(8) %4, i16 noundef zeroext %5, i1 noundef zeroext %6, i1 noundef zeroext %7, i1 noundef zeroext %8, i1 noundef zeroext %9, i32 noundef %10) local_unnamed_addr #0 align 2 {
  %12 = zext i32 %1 to i64
  %13 = getelementptr inbounds [12 x %"class.std::unique_ptr"], ptr %0, i64 0, i64 %12
  %14 = load ptr, ptr %13, align 8
  %15 = icmp eq i32 %10, 16
  %or.cond = or i1 %6, %15
  %16 = icmp eq i32 %10, 64
  %17 = getelementptr inbounds nuw i8, ptr %0, i64 144
  %18 = zext i16 %5 to i64
  %19 = zext i8 %3 to i64
  %invariant.gep = getelementptr inbounds [256 x %struct.ModRMDecision], ptr %14, i64 0, i64 %19
  br i1 %or.cond, label %.split.us, label %.split

.split.us:                                        ; preds = %11, %28
  %indvars.iv25 = phi i64 [ %indvars.iv.next26, %28 ], [ 0, %11 ]
  %20 = trunc nuw nsw i64 %indvars.iv25 to i32
  %21 = tail call fastcc noundef zeroext i1 @_ZL12inheritsFromN4llvm15X86Disassembler18InstructionContextES1_bbbb(i32 noundef %20, i32 noundef 1, i1 noundef zeroext true, i1 noundef zeroext false, i1 noundef zeroext false, i1 noundef zeroext false)
  br i1 %21, label %28, label %22

22:                                               ; preds = %.split.us
  %23 = load ptr, ptr %17, align 8
  %24 = getelementptr inbounds %struct.InstructionSpecifier, ptr %23, i64 %18, i32 1
  %25 = load i32, ptr %24, align 4
  %26 = tail call fastcc noundef zeroext i1 @_ZL12inheritsFromN4llvm15X86Disassembler18InstructionContextES1_bbbb(i32 noundef %20, i32 noundef %25, i1 noundef zeroext %7, i1 noundef zeroext %8, i1 noundef zeroext %9, i1 noundef zeroext %16)
  br i1 %26, label %27, label %28

27:                                               ; preds = %22
  %gep.us = getelementptr inbounds [219 x %struct.OpcodeDecision], ptr %invariant.gep, i64 0, i64 %indvars.iv25
  tail call void @_ZN4llvm15X86Disassembler18DisassemblerTables14setTableFieldsER13ModRMDecisionRKNS0_11ModRMFilterEth(ptr noundef nonnull align 8 dereferenceable(169) %0, ptr noundef nonnull align 2 dereferenceable(514) %gep.us, ptr noundef nonnull align 8 dereferenceable(8) %4, i16 noundef zeroext %5, i8 noundef zeroext %3)
  br label %28

28:                                               ; preds = %27, %22, %.split.us
  %indvars.iv.next26 = add nuw nsw i64 %indvars.iv25, 1
  %exitcond28.not = icmp eq i64 %indvars.iv.next26, 219
  br i1 %exitcond28.not, label %.split22.us, label %.split.us, !llvm.loop !33

.split:                                           ; preds = %11, %35
  %indvars.iv = phi i64 [ %indvars.iv.next, %35 ], [ 0, %11 ]
  %29 = load ptr, ptr %17, align 8
  %30 = getelementptr inbounds %struct.InstructionSpecifier, ptr %29, i64 %18, i32 1
  %31 = load i32, ptr %30, align 4
  %32 = trunc nuw nsw i64 %indvars.iv to i32
  %33 = tail call fastcc noundef zeroext i1 @_ZL12inheritsFromN4llvm15X86Disassembler18InstructionContextES1_bbbb(i32 noundef %32, i32 noundef %31, i1 noundef zeroext %7, i1 noundef zeroext %8, i1 noundef zeroext %9, i1 noundef zeroext %16)
  br i1 %33, label %34, label %35

34:                                               ; preds = %.split
  %gep = getelementptr inbounds [219 x %struct.OpcodeDecision], ptr %invariant.gep, i64 0, i64 %indvars.iv
  tail call void @_ZN4llvm15X86Disassembler18DisassemblerTables14setTableFieldsER13ModRMDecisionRKNS0_11ModRMFilterEth(ptr noundef nonnull align 8 dereferenceable(169) %0, ptr noundef nonnull align 2 dereferenceable(514) %gep, ptr noundef nonnull align 8 dereferenceable(8) %4, i16 noundef zeroext %5, i8 noundef zeroext %3)
  br label %35

35:                                               ; preds = %.split, %34
  %indvars.iv.next = add nuw nsw i64 %indvars.iv, 1
  %exitcond.not = icmp eq i64 %indvars.iv.next, 219
  br i1 %exitcond.not, label %.split22.us, label %.split, !llvm.loop !33

.split22.us:                                      ; preds = %35, %28
  ret void
}